target datalayout = "e-m:e-p270:32:32-p271:32:32-p272:64:64-i64:64-i128:128-f80:128-n8:16:32:64-S128"
target triple = "x86_64-pc-linux-gnu"

%struct.DdNode = type { i32, i32, ptr, %union.anon, i64 }
%union.anon = type { %struct.DdChildren }
%struct.DdChildren = type { ptr, ptr }
%struct.DdHashTable = type { i32, i32, ptr, ptr, ptr, i32, i32, i32, i32, ptr }
%struct.DdHashItem = type { ptr, i64, ptr, [1 x ptr] }

; Function Attrs: nounwind uwtable
define i32 @cuddHashTableInsert3(ptr noundef %0, ptr noundef %1, ptr noundef %2, ptr noundef %3, ptr noundef %4, i64 noundef %5) #0 {
  %7 = alloca i32, align 4
  %8 = alloca ptr, align 8
  %9 = alloca ptr, align 8
  %10 = alloca ptr, align 8
  %11 = alloca ptr, align 8
  %12 = alloca ptr, align 8
  %13 = alloca i64, align 8
  %14 = alloca i32, align 4
  %15 = alloca i32, align 4
  %16 = alloca ptr, align 8
  %17 = alloca i32, align 4
  store ptr %0, ptr %8, align 8, !tbaa !62
  store ptr %1, ptr %9, align 8, !tbaa !50
  store ptr %2, ptr %10, align 8, !tbaa !50
  store ptr %3, ptr %11, align 8, !tbaa !50
  store ptr %4, ptr %12, align 8, !tbaa !50
  store i64 %5, ptr %13, align 8, !tbaa !85
  call void @llvm.lifetime.start.p0(i64 4, ptr %14) #10
  call void @llvm.lifetime.start.p0(i64 4, ptr %15) #10
  call void @llvm.lifetime.start.p0(i64 8, ptr %16) #10
  %18 = load ptr, ptr %8, align 8, !tbaa !62
  %19 = getelementptr inbounds nuw %struct.DdHashTable, ptr %18, i32 0, i32 7
  %20 = load i32, ptr %19, align 8, !tbaa !75
  %21 = load ptr, ptr %8, align 8, !tbaa !62
  %22 = getelementptr inbounds nuw %struct.DdHashTable, ptr %21, i32 0, i32 8
  %23 = load i32, ptr %22, align 4, !tbaa !76
  %24 = icmp ugt i32 %20, %23
  br i1 %24, label %25, label %32

25:                                               ; preds = %6
  %26 = load ptr, ptr %8, align 8, !tbaa !62
  %27 = call i32 @cuddHashTableResize(ptr noundef %26)
  store i32 %27, ptr %14, align 4, !tbaa !8
  %28 = load i32, ptr %14, align 4, !tbaa !8
  %29 = icmp eq i32 %28, 0
  br i1 %29, label %30, label %31

30:                                               ; preds = %25
  store i32 0, ptr %7, align 4
  store i32 1, ptr %17, align 4
  br label %134

31:                                               ; preds = %25
  br label %32

32:                                               ; preds = %31, %6
  %33 = load ptr, ptr %8, align 8, !tbaa !62
  %34 = call ptr @cuddHashTableAlloc(ptr noundef %33)
  store ptr %34, ptr %16, align 8, !tbaa !77
  %35 = load ptr, ptr %16, align 8, !tbaa !77
  %36 = icmp eq ptr %35, null
  br i1 %36, label %37, label %38

37:                                               ; preds = %32
  store i32 0, ptr %7, align 4
  store i32 1, ptr %17, align 4
  br label %134

38:                                               ; preds = %32
  %39 = load ptr, ptr %8, align 8, !tbaa !62
  %40 = getelementptr inbounds nuw %struct.DdHashTable, ptr %39, i32 0, i32 7
  %41 = load i32, ptr %40, align 8, !tbaa !75
  %42 = add i32 %41, 1
  store i32 %42, ptr %40, align 8, !tbaa !75
  %43 = load ptr, ptr %12, align 8, !tbaa !50
  %44 = load ptr, ptr %16, align 8, !tbaa !77
  %45 = getelementptr inbounds nuw %struct.DdHashItem, ptr %44, i32 0, i32 2
  store ptr %43, ptr %45, align 8, !tbaa !78
  %46 = load ptr, ptr %12, align 8, !tbaa !50
  %47 = ptrtoint ptr %46 to i64
  %48 = and i64 %47, -2
  %49 = inttoptr i64 %48 to ptr
  %50 = getelementptr inbounds nuw %struct.DdNode, ptr %49, i32 0, i32 1
  %51 = load i32, ptr %50, align 4, !tbaa !55
  %52 = add i32 %51, 1
  store i32 %52, ptr %50, align 4, !tbaa !55
  %53 = load i64, ptr %13, align 8, !tbaa !85
  %54 = load ptr, ptr %16, align 8, !tbaa !77
  %55 = getelementptr inbounds nuw %struct.DdHashItem, ptr %54, i32 0, i32 1
  store i64 %53, ptr %55, align 8, !tbaa !86
  %56 = load ptr, ptr %9, align 8, !tbaa !50
  %57 = load ptr, ptr %16, align 8, !tbaa !77
  %58 = getelementptr inbounds nuw %struct.DdHashItem, ptr %57, i32 0, i32 3
  %59 = getelementptr inbounds [1 x ptr], ptr %58, i64 0, i64 0
  store ptr %56, ptr %59, align 8, !tbaa !50
  %60 = load ptr, ptr %10, align 8, !tbaa !50
  %61 = load ptr, ptr %16, align 8, !tbaa !77
  %62 = getelementptr inbounds nuw %struct.DdHashItem, ptr %61, i32 0, i32 3
  %63 = getelementptr inbounds [1 x ptr], ptr %62, i64 0, i64 1
  store ptr %60, ptr %63, align 8, !tbaa !50
  %64 = load ptr, ptr %11, align 8, !tbaa !50
  %65 = load ptr, ptr %16, align 8, !tbaa !77
  %66 = getelementptr inbounds nuw %struct.DdHashItem, ptr %65, i32 0, i32 3
  %67 = getelementptr inbounds [1 x ptr], ptr %66, i64 0, i64 2
  store ptr %64, ptr %67, align 8, !tbaa !50
  %68 = load ptr, ptr %10, align 8, !tbaa !50
  %69 = ptrtoint ptr %68 to i64
  %70 = and i64 %69, -2
  %71 = inttoptr i64 %70 to ptr
  %72 = getelementptr inbounds nuw %struct.DdNode, ptr %71, i32 0, i32 4
  %73 = load i64, ptr %72, align 8, !tbaa !88
  %74 = shl i64 %73, 1
  %75 = load ptr, ptr %10, align 8, !tbaa !50
  %76 = ptrtoint ptr %75 to i64
  %77 = and i64 %76, 1
  %78 = trunc i64 %77 to i32
  %79 = sext i32 %78 to i64
  %80 = or i64 %74, %79
  %81 = trunc i64 %80 to i32
  %82 = load ptr, ptr %9, align 8, !tbaa !50
  %83 = ptrtoint ptr %82 to i64
  %84 = and i64 %83, -2
  %85 = inttoptr i64 %84 to ptr
  %86 = getelementptr inbounds nuw %struct.DdNode, ptr %85, i32 0, i32 4
  %87 = load i64, ptr %86, align 8, !tbaa !88
  %88 = shl i64 %87, 1
  %89 = load ptr, ptr %9, align 8, !tbaa !50
  %90 = ptrtoint ptr %89 to i64
  %91 = and i64 %90, 1
  %92 = trunc i64 %91 to i32
  %93 = sext i32 %92 to i64
  %94 = or i64 %88, %93
  %95 = trunc i64 %94 to i32
  %96 = add i32 %81, %95
  %97 = mul i32 %96, 12582917
  %98 = load ptr, ptr %11, align 8, !tbaa !50
  %99 = ptrtoint ptr %98 to i64
  %100 = and i64 %99, -2
  %101 = inttoptr i64 %100 to ptr
  %102 = getelementptr inbounds nuw %struct.DdNode, ptr %101, i32 0, i32 4
  %103 = load i64, ptr %102, align 8, !tbaa !88
  %104 = shl i64 %103, 1
  %105 = load ptr, ptr %11, align 8, !tbaa !50
  %106 = ptrtoint ptr %105 to i64
  %107 = and i64 %106, 1
  %108 = trunc i64 %107 to i32
  %109 = sext i32 %108 to i64
  %110 = or i64 %104, %109
  %111 = trunc i64 %110 to i32
  %112 = add i32 %97, %111
  %113 = mul i32 %112, 4256249
  %114 = load ptr, ptr %8, align 8, !tbaa !62
  %115 = getelementptr inbounds nuw %struct.DdHashTable, ptr %114, i32 0, i32 6
  %116 = load i32, ptr %115, align 4, !tbaa !73
  %117 = lshr i32 %113, %116
  store i32 %117, ptr %15, align 4, !tbaa !8
  %118 = load ptr, ptr %8, align 8, !tbaa !62
  %119 = getelementptr inbounds nuw %struct.DdHashTable, ptr %118, i32 0, i32 2
  %120 = load ptr, ptr %119, align 8, !tbaa !74
  %121 = load i32, ptr %15, align 4, !tbaa !8
  %122 = zext i32 %121 to i64
  %123 = getelementptr inbounds nuw ptr, ptr %120, i64 %122
  %124 = load ptr, ptr %123, align 8, !tbaa !77
  %125 = load ptr, ptr %16, align 8, !tbaa !77
  %126 = getelementptr inbounds nuw %struct.DdHashItem, ptr %125, i32 0, i32 0
  store ptr %124, ptr %126, align 8, !tbaa !80
  %127 = load ptr, ptr %16, align 8, !tbaa !77
  %128 = load ptr, ptr %8, align 8, !tbaa !62
  %129 = getelementptr inbounds nuw %struct.DdHashTable, ptr %128, i32 0, i32 2
  %130 = load ptr, ptr %129, align 8, !tbaa !74
  %131 = load i32, ptr %15, align 4, !tbaa !8
  %132 = zext i32 %131 to i64
  %133 = getelementptr inbounds nuw ptr, ptr %130, i64 %132
  store ptr %127, ptr %133, align 8, !tbaa !77
  store i32 1, ptr %7, align 4
  store i32 1, ptr %17, align 4
  br label %134

134:                                              ; preds = %38, %37, %30
  call void @llvm.lifetime.end.p0(i64 8, ptr %16) #10
  call void @llvm.lifetime.end.p0(i64 4, ptr %15) #10
  call void @llvm.lifetime.end.p0(i64 4, ptr %14) #10
  %135 = load i32, ptr %7, align 4
  ret i32 %135
}