; Function Attrs: nounwind uwtable
define range(i32 0, 2) i32 @cuddHashTableInsert3(ptr noundef captures(none) %0, ptr noundef %1, ptr noundef %2, ptr noundef %3, ptr noundef %4, i64 noundef %5) local_unnamed_addr #0 {
  %7 = getelementptr inbounds nuw i8, ptr %0, i64 40
  %8 = load i32, ptr %7, align 8, !tbaa !65
  %9 = getelementptr inbounds nuw i8, ptr %0, i64 44
  %10 = load i32, ptr %9, align 4, !tbaa !66
  %11 = icmp ugt i32 %8, %10
  br i1 %11, label %12, label %13

12:                                               ; preds = %6
  tail call fastcc void @cuddHashTableResize(ptr noundef nonnull %0)
  br label %13

13:                                               ; preds = %12, %6
  %14 = tail call fastcc ptr @cuddHashTableAlloc(ptr noundef nonnull %0)
  %15 = icmp eq ptr %14, null
  br i1 %15, label %69, label %16

16:                                               ; preds = %13
  %17 = load i32, ptr %7, align 8, !tbaa !65
  %18 = add i32 %17, 1
  store i32 %18, ptr %7, align 8, !tbaa !65
  %19 = getelementptr inbounds nuw i8, ptr %14, i64 16
  store ptr %4, ptr %19, align 8, !tbaa !68
  %20 = ptrtoint ptr %4 to i64
  %21 = and i64 %20, -2
  %22 = inttoptr i64 %21 to ptr
  %23 = getelementptr inbounds nuw i8, ptr %22, i64 4
  %24 = load i32, ptr %23, align 4, !tbaa !49
  %25 = add i32 %24, 1
  store i32 %25, ptr %23, align 4, !tbaa !49
  %26 = getelementptr inbounds nuw i8, ptr %14, i64 8
  store i64 %5, ptr %26, align 8, !tbaa !74
  %27 = getelementptr inbounds nuw i8, ptr %14, i64 24
  store ptr %1, ptr %27, align 8, !tbaa !45
  %28 = getelementptr inbounds nuw i8, ptr %14, i64 32
  store ptr %2, ptr %28, align 8, !tbaa !45
  %29 = getelementptr inbounds nuw i8, ptr %14, i64 40
  store ptr %3, ptr %29, align 8, !tbaa !45
  %30 = ptrtoint ptr %2 to i64
  %31 = and i64 %30, -2
  %32 = inttoptr i64 %31 to ptr
  %33 = getelementptr inbounds nuw i8, ptr %32, i64 32
  %34 = load i64, ptr %33, align 8, !tbaa !79
  %35 = shl i64 %34, 1
  %36 = and i64 %30, 1
  %37 = or disjoint i64 %35, %36
  %38 = trunc i64 %37 to i32
  %39 = ptrtoint ptr %1 to i64
  %40 = and i64 %39, -2
  %41 = inttoptr i64 %40 to ptr
  %42 = getelementptr inbounds nuw i8, ptr %41, i64 32
  %43 = load i64, ptr %42, align 8, !tbaa !79
  %44 = shl i64 %43, 1
  %45 = and i64 %39, 1
  %46 = or disjoint i64 %44, %45
  %47 = trunc i64 %46 to i32
  %48 = add i32 %47, %38
  %49 = mul i32 %48, 12582917
  %50 = ptrtoint ptr %3 to i64
  %51 = and i64 %50, -2
  %52 = inttoptr i64 %51 to ptr
  %53 = getelementptr inbounds nuw i8, ptr %52, i64 32
  %54 = load i64, ptr %53, align 8, !tbaa !79
  %55 = shl i64 %54, 1
  %56 = and i64 %50, 1
  %57 = or disjoint i64 %55, %56
  %58 = trunc i64 %57 to i32
  %59 = add i32 %49, %58
  %60 = mul i32 %59, 4256249
  %61 = getelementptr inbounds nuw i8, ptr %0, i64 36
  %62 = load i32, ptr %61, align 4, !tbaa !63
  %63 = lshr i32 %60, %62
  %64 = getelementptr inbounds nuw i8, ptr %0, i64 8
  %65 = load ptr, ptr %64, align 8, !tbaa !64
  %66 = zext i32 %63 to i64
  %67 = getelementptr inbounds nuw ptr, ptr %65, i64 %66
  %68 = load ptr, ptr %67, align 8, !tbaa !67
  store ptr %68, ptr %14, align 8, !tbaa !76
  store ptr %14, ptr %67, align 8, !tbaa !67
  br label %69

69:                                               ; preds = %13, %16
  %.0 = phi i32 [ 1, %16 ], [ 0, %13 ]
  ret i32 %.0
}